target datalayout = "e-m:e-p270:32:32-p271:32:32-p272:64:64-i64:64-i128:128-f80:128-n8:16:32:64-S128"
target triple = "x86_64-pc-linux-gnu"

%struct.Sbm_Man_t_ = type { ptr, ptr, i32, i32, i32, i32, ptr, ptr, ptr, ptr, ptr, ptr, ptr, ptr, ptr, ptr, ptr, ptr, ptr }
%struct.Vec_Int_t_ = type { i32, i32, ptr }
%struct.Vec_Wec_t_ = type { i32, i32, ptr }
%struct.sat_solver_t = type { i32, i32, i32, i32, %struct.Sat_Mem_t_, i32, i32, ptr, ptr, i32, i32, i32, i32, i32, i64, i64, i64, ptr, ptr, i32, i32, %struct.veci_t, ptr, i32, ptr, ptr, ptr, ptr, ptr, ptr, ptr, ptr, %struct.veci_t, %struct.veci_t, %struct.veci_t, %struct.veci_t, ptr, %struct.veci_t, i32, i32, i32, double, double, i32, i32, i32, %struct.stats_t, i32, i32, i32, i32, i32, i64, i64, i64, %struct.veci_t, ptr, i32, i32, i32, %struct.veci_t, %struct.veci_t, i32, i32, i32, ptr, ptr, i32, ptr, i32, i32, %struct.veci_t, %struct.veci_t, %struct.veci_t, ptr, ptr, i32, ptr }
%struct.Sat_Mem_t_ = type { [2 x i32], [2 x i32], [2 x i32], [2 x i32], i32, i32, i32, i32, ptr }
%struct.stats_t = type { i32, i32, i32, i64, i64, i64, i64, i64, i64, i64 }
%struct.veci_t = type { i32, i32, ptr }

; Function Attrs: nounwind uwtable
define internal void @sat_solver_set_polarity(ptr noundef %0, ptr noundef %1, i32 noundef %2) #0 {
  %4 = alloca ptr, align 8
  %5 = alloca ptr, align 8
  %6 = alloca i32, align 4
  %7 = alloca i32, align 4
  store ptr %0, ptr %4, align 8
  store ptr %1, ptr %5, align 8
  store i32 %2, ptr %6, align 4
  store i32 0, ptr %7, align 4
  br label %8

8:                                                ; preds = %21, %3
  %9 = load i32, ptr %7, align 4
  %10 = load ptr, ptr %4, align 8
  %11 = getelementptr inbounds %struct.sat_solver_t, ptr %10, i32 0, i32 0
  %12 = load i32, ptr %11, align 8
  %13 = icmp slt i32 %9, %12
  br i1 %13, label %14, label %24

14:                                               ; preds = %8
  %15 = load ptr, ptr %4, align 8
  %16 = getelementptr inbounds %struct.sat_solver_t, ptr %15, i32 0, i32 26
  %17 = load ptr, ptr %16, align 8
  %18 = load i32, ptr %7, align 4
  %19 = sext i32 %18 to i64
  %20 = getelementptr inbounds i8, ptr %17, i64 %19
  store i8 0, ptr %20, align 1
  br label %21

21:                                               ; preds = %14
  %22 = load i32, ptr %7, align 4
  %23 = add nsw i32 %22, 1
  store i32 %23, ptr %7, align 4
  br label %8, !llvm.loop !13

24:                                               ; preds = %8
  store i32 0, ptr %7, align 4
  br label %25

25:                                               ; preds = %40, %24
  %26 = load i32, ptr %7, align 4
  %27 = load i32, ptr %6, align 4
  %28 = icmp slt i32 %26, %27
  br i1 %28, label %29, label %43

29:                                               ; preds = %25
  %30 = load ptr, ptr %4, align 8
  %31 = getelementptr inbounds %struct.sat_solver_t, ptr %30, i32 0, i32 26
  %32 = load ptr, ptr %31, align 8
  %33 = load ptr, ptr %5, align 8
  %34 = load i32, ptr %7, align 4
  %35 = sext i32 %34 to i64
  %36 = getelementptr inbounds i32, ptr %33, i64 %35
  %37 = load i32, ptr %36, align 4
  %38 = sext i32 %37 to i64
  %39 = getelementptr inbounds i8, ptr %32, i64 %38
  store i8 1, ptr %39, align 1
  br label %40

40:                                               ; preds = %29
  %41 = load i32, ptr %7, align 4
  %42 = add nsw i32 %41, 1
  store i32 %42, ptr %7, align 4
  br label %25, !llvm.loop !14

43:                                               ; preds = %25
  ret void
}

; Function Attrs: nounwind uwtable
define internal i32 @Abc_Var2Lit(i32 noundef %0, i32 noundef %1) #0 {
  %3 = alloca i32, align 4
  %4 = alloca i32, align 4
  store i32 %0, ptr %3, align 4
  store i32 %1, ptr %4, align 4
  %5 = load i32, ptr %3, align 4
  %6 = load i32, ptr %3, align 4
  %7 = add nsw i32 %5, %6
  %8 = load i32, ptr %4, align 4
  %9 = add nsw i32 %7, %8
  ret i32 %9
}

; Function Attrs: nounwind uwtable
define internal i32 @Abc_Lit2Var(i32 noundef %0) #0 {
  %2 = alloca i32, align 4
  store i32 %0, ptr %2, align 4
  %3 = load i32, ptr %2, align 4
  %4 = ashr i32 %3, 1
  ret i32 %4
}

; Function Attrs: nounwind uwtable
define internal i32 @Vec_IntEntry(ptr noundef %0, i32 noundef %1) #0 {
  %3 = alloca ptr, align 8
  %4 = alloca i32, align 4
  store ptr %0, ptr %3, align 8
  store i32 %1, ptr %4, align 4
  %5 = load ptr, ptr %3, align 8
  %6 = getelementptr inbounds %struct.Vec_Int_t_, ptr %5, i32 0, i32 2
  %7 = load ptr, ptr %6, align 8
  %8 = load i32, ptr %4, align 4
  %9 = sext i32 %8 to i64
  %10 = getelementptr inbounds i32, ptr %7, i64 %9
  %11 = load i32, ptr %10, align 4
  ret i32 %11
}

; Function Attrs: nounwind uwtable
define internal i32 @Vec_IntSize(ptr noundef %0) #0 {
  %2 = alloca ptr, align 8
  store ptr %0, ptr %2, align 8
  %3 = load ptr, ptr %2, align 8
  %4 = getelementptr inbounds %struct.Vec_Int_t_, ptr %3, i32 0, i32 1
  %5 = load i32, ptr %4, align 4
  ret i32 %5
}

; Function Attrs: nounwind uwtable
define internal i32 @Abc_LitNot(i32 noundef %0) #0 {
  %2 = alloca i32, align 4
  store i32 %0, ptr %2, align 4
  %3 = load i32, ptr %2, align 4
  %4 = xor i32 %3, 1
  ret i32 %4
}

; Function Attrs: nounwind uwtable
define internal i32 @Vec_IntEntryLast(ptr noundef %0) #0 {
  %2 = alloca ptr, align 8
  store ptr %0, ptr %2, align 8
  %3 = load ptr, ptr %2, align 8
  %4 = getelementptr inbounds %struct.Vec_Int_t_, ptr %3, i32 0, i32 2
  %5 = load ptr, ptr %4, align 8
  %6 = load ptr, ptr %2, align 8
  %7 = getelementptr inbounds %struct.Vec_Int_t_, ptr %6, i32 0, i32 1
  %8 = load i32, ptr %7, align 4
  %9 = sub nsw i32 %8, 1
  %10 = sext i32 %9 to i64
  %11 = getelementptr inbounds i32, ptr %5, i64 %10
  %12 = load i32, ptr %11, align 4
  ret i32 %12
}

; Function Attrs: nounwind uwtable
define internal ptr @Vec_IntLimit(ptr noundef %0) #0 {
  %2 = alloca ptr, align 8
  store ptr %0, ptr %2, align 8
  %3 = load ptr, ptr %2, align 8
  %4 = getelementptr inbounds %struct.Vec_Int_t_, ptr %3, i32 0, i32 2
  %5 = load ptr, ptr %4, align 8
  %6 = load ptr, ptr %2, align 8
  %7 = getelementptr inbounds %struct.Vec_Int_t_, ptr %6, i32 0, i32 1
  %8 = load i32, ptr %7, align 4
  %9 = sext i32 %8 to i64
  %10 = getelementptr inbounds i32, ptr %5, i64 %9
  ret ptr %10
}

; Function Attrs: nounwind uwtable
define internal ptr @Vec_IntArray(ptr noundef %0) #0 {
  %2 = alloca ptr, align 8
  store ptr %0, ptr %2, align 8
  %3 = load ptr, ptr %2, align 8
  %4 = getelementptr inbounds %struct.Vec_Int_t_, ptr %3, i32 0, i32 2
  %5 = load ptr, ptr %4, align 8
  ret ptr %5
}

; Function Attrs: nounwind uwtable
define internal ptr @Vec_WecEntry(ptr noundef %0, i32 noundef %1) #0 {
  %3 = alloca ptr, align 8
  %4 = alloca i32, align 4
  store ptr %0, ptr %3, align 8
  store i32 %1, ptr %4, align 4
  %5 = load ptr, ptr %3, align 8
  %6 = getelementptr inbounds %struct.Vec_Wec_t_, ptr %5, i32 0, i32 2
  %7 = load ptr, ptr %6, align 8
  %8 = load i32, ptr %4, align 4
  %9 = sext i32 %8 to i64
  %10 = getelementptr inbounds %struct.Vec_Int_t_, ptr %7, i64 %9
  ret ptr %10
}

; Function Attrs: nounwind uwtable
define internal i32 @Vec_WecSize(ptr noundef %0) #0 {
  %2 = alloca ptr, align 8
  store ptr %0, ptr %2, align 8
  %3 = load ptr, ptr %2, align 8
  %4 = getelementptr inbounds %struct.Vec_Wec_t_, ptr %3, i32 0, i32 1
  %5 = load i32, ptr %4, align 4
  ret i32 %5
}

; Function Attrs: nounwind uwtable
define i32 @Sbm_ManCreateCnf(ptr noundef %0) #0 {
  %2 = alloca i32, align 4
  %3 = alloca ptr, align 8
  %4 = alloca i32, align 4
  %5 = alloca i32, align 4
  %6 = alloca i32, align 4
  %7 = alloca [2 x i32], align 4
  %8 = alloca i32, align 4
  %9 = alloca ptr, align 8
  %10 = alloca ptr, align 8
  %11 = alloca ptr, align 8
  store ptr %0, ptr %3, align 8
  %12 = load ptr, ptr %3, align 8
  %13 = load ptr, ptr %3, align 8
  %14 = getelementptr inbounds %struct.Sbm_Man_t_, ptr %13, i32 0, i32 9
  %15 = load ptr, ptr %14, align 8
  %16 = call i32 @Sbm_ManCheckSol(ptr noundef %12, ptr noundef %15)
  %17 = icmp ne i32 %16, 0
  br i1 %17, label %19, label %18

18:                                               ; preds = %1
  store i32 0, ptr %2, align 4
  br label %183

19:                                               ; preds = %1
  %20 = load ptr, ptr %3, align 8
  %21 = getelementptr inbounds %struct.Sbm_Man_t_, ptr %20, i32 0, i32 0
  %22 = load ptr, ptr %21, align 8
  %23 = load ptr, ptr %3, align 8
  %24 = getelementptr inbounds %struct.Sbm_Man_t_, ptr %23, i32 0, i32 0
  %25 = load ptr, ptr %24, align 8
  %26 = call i32 @sat_solver_nvars(ptr noundef %25)
  %27 = load ptr, ptr %3, align 8
  %28 = getelementptr inbounds %struct.Sbm_Man_t_, ptr %27, i32 0, i32 7
  %29 = load ptr, ptr %28, align 8
  %30 = call i32 @Vec_WecSize(ptr noundef %29)
  %31 = add nsw i32 %26, %30
  call void @sat_solver_setnvars(ptr noundef %22, i32 noundef %31)
  store ptr null, ptr %11, align 8
  store i32 0, ptr %4, align 4
  br label %32

32:                                               ; preds = %77, %19
  %33 = load i32, ptr %4, align 4
  %34 = load ptr, ptr %3, align 8
  %35 = getelementptr inbounds %struct.Sbm_Man_t_, ptr %34, i32 0, i32 8
  %36 = load ptr, ptr %35, align 8
  %37 = call i32 @Vec_WecSize(ptr noundef %36)
  %38 = icmp slt i32 %33, %37
  br i1 %38, label %39, label %45

39:                                               ; preds = %32
  %40 = load ptr, ptr %3, align 8
  %41 = getelementptr inbounds %struct.Sbm_Man_t_, ptr %40, i32 0, i32 8
  %42 = load ptr, ptr %41, align 8
  %43 = load i32, ptr %4, align 4
  %44 = call ptr @Vec_WecEntry(ptr noundef %42, i32 noundef %43)
  store ptr %44, ptr %9, align 8
  br label %45

45:                                               ; preds = %39, %32
  %46 = phi i1 [ false, %32 ], [ true, %39 ]
  br i1 %46, label %47, label %80

47:                                               ; preds = %45
  %48 = load ptr, ptr %3, align 8
  %49 = getelementptr inbounds %struct.Sbm_Man_t_, ptr %48, i32 0, i32 0
  %50 = load ptr, ptr %49, align 8
  %51 = load ptr, ptr %9, align 8
  %52 = call ptr @Vec_IntArray(ptr noundef %51)
  %53 = load ptr, ptr %9, align 8
  %54 = call ptr @Vec_IntLimit(ptr noundef %53)
  %55 = call i32 @sat_solver_addclause(ptr noundef %50, ptr noundef %52, ptr noundef %54)
  store i32 %55, ptr %8, align 4
  %56 = load i32, ptr %4, align 4
  %57 = and i32 %56, 1
  %58 = icmp ne i32 %57, 0
  br i1 %58, label %59, label %75

59:                                               ; preds = %47
  %60 = load ptr, ptr %9, align 8
  %61 = call i32 @Vec_IntEntryLast(ptr noundef %60)
  %62 = call i32 @Abc_LitNot(i32 noundef %61)
  %63 = getelementptr inbounds [2 x i32], ptr %7, i64 0, i64 0
  store i32 %62, ptr %63, align 4
  %64 = load ptr, ptr %11, align 8
  %65 = call i32 @Vec_IntEntryLast(ptr noundef %64)
  %66 = call i32 @Abc_LitNot(i32 noundef %65)
  %67 = getelementptr inbounds [2 x i32], ptr %7, i64 0, i64 1
  store i32 %66, ptr %67, align 4
  %68 = load ptr, ptr %3, align 8
  %69 = getelementptr inbounds %struct.Sbm_Man_t_, ptr %68, i32 0, i32 0
  %70 = load ptr, ptr %69, align 8
  %71 = getelementptr inbounds [2 x i32], ptr %7, i64 0, i64 0
  %72 = getelementptr inbounds [2 x i32], ptr %7, i64 0, i64 0
  %73 = getelementptr inbounds i32, ptr %72, i64 2
  %74 = call i32 @sat_solver_addclause(ptr noundef %70, ptr noundef %71, ptr noundef %73)
  store i32 %74, ptr %8, align 4
  br label %75

75:                                               ; preds = %59, %47
  %76 = load ptr, ptr %9, align 8
  store ptr %76, ptr %11, align 8
  br label %77

77:                                               ; preds = %75
  %78 = load i32, ptr %4, align 4
  %79 = add nsw i32 %78, 1
  store i32 %79, ptr %4, align 4
  br label %32, !llvm.loop !10

80:                                               ; preds = %45
  store i32 0, ptr %4, align 4
  br label %81

81:                                               ; preds = %168, %80
  %82 = load i32, ptr %4, align 4
  %83 = load ptr, ptr %3, align 8
  %84 = getelementptr inbounds %struct.Sbm_Man_t_, ptr %83, i32 0, i32 7
  %85 = load ptr, ptr %84, align 8
  %86 = call i32 @Vec_WecSize(ptr noundef %85)
  %87 = icmp slt i32 %82, %86
  br i1 %87, label %88, label %94

88:                                               ; preds = %81
  %89 = load ptr, ptr %3, align 8
  %90 = getelementptr inbounds %struct.Sbm_Man_t_, ptr %89, i32 0, i32 7
  %91 = load ptr, ptr %90, align 8
  %92 = load i32, ptr %4, align 4
  %93 = call ptr @Vec_WecEntry(ptr noundef %91, i32 noundef %92)
  store ptr %93, ptr %10, align 8
  br label %94

94:                                               ; preds = %88, %81
  %95 = phi i1 [ false, %81 ], [ true, %88 ]
  br i1 %95, label %96, label %171

96:                                               ; preds = %94
  store i32 0, ptr %5, align 4
  br label %97

97:                                               ; preds = %164, %96
  %98 = load i32, ptr %5, align 4
  %99 = load ptr, ptr %10, align 8
  %100 = call i32 @Vec_IntSize(ptr noundef %99)
  %101 = icmp slt i32 %98, %100
  br i1 %101, label %102, label %106

102:                                              ; preds = %97
  %103 = load ptr, ptr %10, align 8
  %104 = load i32, ptr %5, align 4
  %105 = call i32 @Vec_IntEntry(ptr noundef %103, i32 noundef %104)
  store i32 %105, ptr %6, align 4
  br label %106

106:                                              ; preds = %102, %97
  %107 = phi i1 [ false, %97 ], [ true, %102 ]
  br i1 %107, label %108, label %167

108:                                              ; preds = %106
  %109 = load i32, ptr %6, align 4
  %110 = call i32 @Abc_Lit2Var(i32 noundef %109)
  %111 = sub nsw i32 %110, 1
  %112 = load ptr, ptr %3, align 8
  %113 = getelementptr inbounds %struct.Sbm_Man_t_, ptr %112, i32 0, i32 5
  %114 = load i32, ptr %113, align 4
  %115 = icmp slt i32 %111, %114
  br i1 %115, label %116, label %141

116:                                              ; preds = %108
  %117 = load ptr, ptr %3, align 8
  %118 = getelementptr inbounds %struct.Sbm_Man_t_, ptr %117, i32 0, i32 8
  %119 = load ptr, ptr %118, align 8
  %120 = call i32 @Vec_WecSize(ptr noundef %119)
  %121 = load i32, ptr %6, align 4
  %122 = call i32 @Abc_Lit2Var(i32 noundef %121)
  %123 = add nsw i32 %120, %122
  %124 = sub nsw i32 %123, 1
  %125 = call i32 @Abc_Var2Lit(i32 noundef %124, i32 noundef 0)
  %126 = getelementptr inbounds [2 x i32], ptr %7, i64 0, i64 0
  store i32 %125, ptr %126, align 4
  %127 = load ptr, ptr %3, align 8
  %128 = getelementptr inbounds %struct.Sbm_Man_t_, ptr %127, i32 0, i32 3
  %129 = load i32, ptr %128, align 4
  %130 = load i32, ptr %4, align 4
  %131 = add nsw i32 %129, %130
  %132 = call i32 @Abc_Var2Lit(i32 noundef %131, i32 noundef 1)
  %133 = getelementptr inbounds [2 x i32], ptr %7, i64 0, i64 1
  store i32 %132, ptr %133, align 4
  %134 = load ptr, ptr %3, align 8
  %135 = getelementptr inbounds %struct.Sbm_Man_t_, ptr %134, i32 0, i32 0
  %136 = load ptr, ptr %135, align 8
  %137 = getelementptr inbounds [2 x i32], ptr %7, i64 0, i64 0
  %138 = getelementptr inbounds [2 x i32], ptr %7, i64 0, i64 0
  %139 = getelementptr inbounds i32, ptr %138, i64 2
  %140 = call i32 @sat_solver_addclause(ptr noundef %136, ptr noundef %137, ptr noundef %139)
  store i32 %140, ptr %8, align 4
  br label %163

141:                                              ; preds = %108
  %142 = load i32, ptr %6, align 4
  %143 = load ptr, ptr %3, align 8
  %144 = getelementptr inbounds %struct.Sbm_Man_t_, ptr %143, i32 0, i32 4
  %145 = load i32, ptr %144, align 8
  %146 = sub nsw i32 %142, %145
  %147 = call i32 @Abc_Var2Lit(i32 noundef %146, i32 noundef 0)
  %148 = getelementptr inbounds [2 x i32], ptr %7, i64 0, i64 0
  store i32 %147, ptr %148, align 4
  %149 = load ptr, ptr %3, align 8
  %150 = getelementptr inbounds %struct.Sbm_Man_t_, ptr %149, i32 0, i32 3
  %151 = load i32, ptr %150, align 4
  %152 = load i32, ptr %4, align 4
  %153 = add nsw i32 %151, %152
  %154 = call i32 @Abc_Var2Lit(i32 noundef %153, i32 noundef 1)
  %155 = getelementptr inbounds [2 x i32], ptr %7, i64 0, i64 1
  store i32 %154, ptr %155, align 4
  %156 = load ptr, ptr %3, align 8
  %157 = getelementptr inbounds %struct.Sbm_Man_t_, ptr %156, i32 0, i32 0
  %158 = load ptr, ptr %157, align 8
  %159 = getelementptr inbounds [2 x i32], ptr %7, i64 0, i64 0
  %160 = getelementptr inbounds [2 x i32], ptr %7, i64 0, i64 0
  %161 = getelementptr inbounds i32, ptr %160, i64 2
  %162 = call i32 @sat_solver_addclause(ptr noundef %158, ptr noundef %159, ptr noundef %161)
  store i32 %162, ptr %8, align 4
  br label %163

163:                                              ; preds = %141, %116
  br label %164

164:                                              ; preds = %163
  %165 = load i32, ptr %5, align 4
  %166 = add nsw i32 %165, 1
  store i32 %166, ptr %5, align 4
  br label %97, !llvm.loop !11

167:                                              ; preds = %106
  br label %168

168:                                              ; preds = %167
  %169 = load i32, ptr %4, align 4
  %170 = add nsw i32 %169, 1
  store i32 %170, ptr %4, align 4
  br label %81, !llvm.loop !12

171:                                              ; preds = %94
  %172 = load ptr, ptr %3, align 8
  %173 = getelementptr inbounds %struct.Sbm_Man_t_, ptr %172, i32 0, i32 0
  %174 = load ptr, ptr %173, align 8
  %175 = load ptr, ptr %3, align 8
  %176 = getelementptr inbounds %struct.Sbm_Man_t_, ptr %175, i32 0, i32 13
  %177 = load ptr, ptr %176, align 8
  %178 = call ptr @Vec_IntArray(ptr noundef %177)
  %179 = load ptr, ptr %3, align 8
  %180 = getelementptr inbounds %struct.Sbm_Man_t_, ptr %179, i32 0, i32 13
  %181 = load ptr, ptr %180, align 8
  %182 = call i32 @Vec_IntSize(ptr noundef %181)
  call void @sat_solver_set_polarity(ptr noundef %174, ptr noundef %178, i32 noundef %182)
  store i32 1, ptr %2, align 4
  br label %183

183:                                              ; preds = %171, %18
  %184 = load i32, ptr %2, align 4
  ret i32 %184
}