; Function Attrs: nounwind uwtable
define range(i32 0, 2) i32 @Sbm_ManCreateCnf(ptr noundef readonly captures(none) %0) local_unnamed_addr #0 {
  %2 = alloca [2 x i32], align 4
  %3 = tail call i32 @Sbm_ManCheckSol(ptr noundef %0, ptr poison)
  %.not = icmp eq i32 %3, 0
  br i1 %.not, label %sat_solver_set_polarity.exit, label %4

4:                                                ; preds = %1
  %5 = load ptr, ptr %0, align 8
  %6 = tail call i32 @sat_solver_nvars(ptr noundef %5) #16
  %7 = getelementptr inbounds nuw i8, ptr %0, i64 40
  %8 = load ptr, ptr %7, align 8
  %9 = getelementptr i8, ptr %8, i64 4
  %.val54 = load i32, ptr %9, align 4
  %10 = add nsw i32 %.val54, %6
  tail call void @sat_solver_setnvars(ptr noundef %5, i32 noundef %10) #16
  %11 = getelementptr inbounds nuw i8, ptr %0, i64 48
  %12 = load ptr, ptr %11, align 8
  %13 = getelementptr i8, ptr %12, i64 4
  %.val5367 = load i32, ptr %13, align 4
  %14 = icmp sgt i32 %.val5367, 0
  br i1 %14, label %.lr.ph, label %.critedge.preheader

.lr.ph:                                           ; preds = %4
  %15 = getelementptr inbounds nuw i8, ptr %2, i64 4
  %16 = getelementptr inbounds nuw i8, ptr %2, i64 8
  br label %25

.critedge.preheader:                              ; preds = %51, %4
  %17 = load ptr, ptr %7, align 8
  %18 = getelementptr i8, ptr %17, i64 4
  %.val5273 = load i32, ptr %18, align 4
  %19 = icmp sgt i32 %.val5273, 0
  br i1 %19, label %.lr.ph75, label %.critedge2

.lr.ph75:                                         ; preds = %.critedge.preheader
  %20 = getelementptr inbounds nuw i8, ptr %0, i64 28
  %21 = getelementptr inbounds nuw i8, ptr %0, i64 20
  %22 = getelementptr inbounds nuw i8, ptr %2, i64 4
  %23 = getelementptr inbounds nuw i8, ptr %2, i64 8
  %24 = getelementptr inbounds nuw i8, ptr %0, i64 24
  br label %56

25:                                               ; preds = %.lr.ph, %51
  %indvars.iv = phi i64 [ 0, %.lr.ph ], [ %indvars.iv.next, %51 ]
  %26 = phi ptr [ %12, %.lr.ph ], [ %52, %51 ]
  %.069 = phi ptr [ null, %.lr.ph ], [ %28, %51 ]
  %27 = getelementptr i8, ptr %26, i64 8
  %.val59 = load ptr, ptr %27, align 8
  %28 = getelementptr inbounds nuw %struct.Vec_Int_t_, ptr %.val59, i64 %indvars.iv
  %29 = load ptr, ptr %0, align 8
  %30 = getelementptr i8, ptr %28, i64 8
  %.val60 = load ptr, ptr %30, align 8
  %31 = getelementptr i8, ptr %28, i64 4
  %.val62 = load i32, ptr %31, align 4
  %32 = sext i32 %.val62 to i64
  %33 = getelementptr inbounds i32, ptr %.val60, i64 %32
  %34 = call i32 @sat_solver_addclause(ptr noundef %29, ptr noundef %.val60, ptr noundef %33) #16
  %35 = and i64 %indvars.iv, 1
  %.not51 = icmp eq i64 %35, 0
  br i1 %.not51, label %51, label %36

36:                                               ; preds = %25
  %.val64 = load i32, ptr %31, align 4
  %.val65 = load ptr, ptr %30, align 8
  %37 = sext i32 %.val64 to i64
  %38 = getelementptr i32, ptr %.val65, i64 %37
  %39 = getelementptr i8, ptr %38, i64 -4
  %40 = load i32, ptr %39, align 4
  %41 = xor i32 %40, 1
  store i32 %41, ptr %2, align 4
  %42 = getelementptr i8, ptr %.069, i64 4
  %.0.val = load i32, ptr %42, align 4
  %43 = getelementptr i8, ptr %.069, i64 8
  %.0.val66 = load ptr, ptr %43, align 8
  %44 = sext i32 %.0.val to i64
  %45 = getelementptr i32, ptr %.0.val66, i64 %44
  %46 = getelementptr i8, ptr %45, i64 -4
  %47 = load i32, ptr %46, align 4
  %48 = xor i32 %47, 1
  store i32 %48, ptr %15, align 4
  %49 = load ptr, ptr %0, align 8
  %50 = call i32 @sat_solver_addclause(ptr noundef %49, ptr noundef nonnull %2, ptr noundef nonnull %16) #16
  br label %51

51:                                               ; preds = %36, %25
  %indvars.iv.next = add nuw nsw i64 %indvars.iv, 1
  %52 = load ptr, ptr %11, align 8
  %53 = getelementptr i8, ptr %52, i64 4
  %.val53 = load i32, ptr %53, align 4
  %54 = sext i32 %.val53 to i64
  %55 = icmp slt i64 %indvars.iv.next, %54
  br i1 %55, label %25, label %.critedge.preheader, !llvm.loop !10

56:                                               ; preds = %.lr.ph75, %.critedge4
  %57 = phi ptr [ %17, %.lr.ph75 ], [ %87, %.critedge4 ]
  %indvars.iv80 = phi i64 [ 0, %.lr.ph75 ], [ %indvars.iv.next81, %.critedge4 ]
  %58 = getelementptr i8, ptr %57, i64 8
  %.val58 = load ptr, ptr %58, align 8
  %59 = getelementptr inbounds nuw %struct.Vec_Int_t_, ptr %.val58, i64 %indvars.iv80
  %60 = getelementptr i8, ptr %59, i64 4
  %.val5670 = load i32, ptr %60, align 4
  %61 = icmp sgt i32 %.val5670, 0
  br i1 %61, label %.lr.ph72, label %.critedge4

.lr.ph72:                                         ; preds = %56
  %62 = getelementptr i8, ptr %59, i64 8
  %.sink85 = trunc i64 %indvars.iv80 to i32
  br label %63

63:                                               ; preds = %.lr.ph72, %78
  %indvars.iv77 = phi i64 [ 0, %.lr.ph72 ], [ %indvars.iv.next78, %78 ]
  %.val57 = load ptr, ptr %62, align 8
  %64 = getelementptr inbounds nuw i32, ptr %.val57, i64 %indvars.iv77
  %65 = load i32, ptr %64, align 4
  %66 = ashr i32 %65, 1
  %67 = load i32, ptr %20, align 4
  %.not50 = icmp sgt i32 %66, %67
  br i1 %.not50, label %74, label %68

68:                                               ; preds = %63
  %69 = load ptr, ptr %11, align 8
  %70 = getelementptr i8, ptr %69, i64 4
  %.val = load i32, ptr %70, align 4
  %71 = add nsw i32 %.val, %66
  %72 = shl i32 %71, 1
  %73 = add i32 %72, -2
  br label %78

74:                                               ; preds = %63
  %75 = load i32, ptr %24, align 8
  %76 = sub nsw i32 %65, %75
  %77 = shl nsw i32 %76, 1
  br label %78

78:                                               ; preds = %68, %74
  %.sink = phi i32 [ %73, %68 ], [ %77, %74 ]
  store i32 %.sink, ptr %2, align 4
  %79 = load i32, ptr %21, align 4
  %80 = add nsw i32 %79, %.sink85
  %81 = shl nsw i32 %80, 1
  %82 = or disjoint i32 %81, 1
  store i32 %82, ptr %22, align 4
  %83 = load ptr, ptr %0, align 8
  %84 = call i32 @sat_solver_addclause(ptr noundef %83, ptr noundef nonnull %2, ptr noundef nonnull %23) #16
  %indvars.iv.next78 = add nuw nsw i64 %indvars.iv77, 1
  %.val56 = load i32, ptr %60, align 4
  %85 = sext i32 %.val56 to i64
  %86 = icmp slt i64 %indvars.iv.next78, %85
  br i1 %86, label %63, label %.critedge4.loopexit, !llvm.loop !11

.critedge4.loopexit:                              ; preds = %78
  %.pre = load ptr, ptr %7, align 8
  br label %.critedge4

.critedge4:                                       ; preds = %.critedge4.loopexit, %56
  %87 = phi ptr [ %.pre, %.critedge4.loopexit ], [ %57, %56 ]
  %indvars.iv.next81 = add nuw nsw i64 %indvars.iv80, 1
  %88 = getelementptr i8, ptr %87, i64 4
  %.val52 = load i32, ptr %88, align 4
  %89 = sext i32 %.val52 to i64
  %90 = icmp slt i64 %indvars.iv.next81, %89
  br i1 %90, label %56, label %.critedge2, !llvm.loop !12

.critedge2:                                       ; preds = %.critedge4, %.critedge.preheader
  %91 = load ptr, ptr %0, align 8
  %92 = getelementptr inbounds nuw i8, ptr %0, i64 88
  %93 = load ptr, ptr %92, align 8
  %94 = getelementptr i8, ptr %93, i64 8
  %.val61 = load ptr, ptr %94, align 8
  %95 = getelementptr i8, ptr %93, i64 4
  %.val55 = load i32, ptr %95, align 4
  %96 = load i32, ptr %91, align 8
  %97 = icmp sgt i32 %96, 0
  br i1 %97, label %.lr.ph.i, label %.preheader.i

.lr.ph.i:                                         ; preds = %.critedge2
  %98 = getelementptr inbounds nuw i8, ptr %91, i64 216
  br label %101

.preheader.i:                                     ; preds = %101, %.critedge2
  %99 = icmp sgt i32 %.val55, 0
  br i1 %99, label %.lr.ph12.i, label %sat_solver_set_polarity.exit

.lr.ph12.i:                                       ; preds = %.preheader.i
  %100 = getelementptr inbounds nuw i8, ptr %91, i64 216
  %wide.trip.count.i = zext nneg i32 %.val55 to i64
  br label %107

101:                                              ; preds = %101, %.lr.ph.i
  %indvars.iv.i = phi i64 [ 0, %.lr.ph.i ], [ %indvars.iv.next.i, %101 ]
  %102 = load ptr, ptr %98, align 8
  %103 = getelementptr inbounds nuw i8, ptr %102, i64 %indvars.iv.i
  store i8 0, ptr %103, align 1
  %indvars.iv.next.i = add nuw nsw i64 %indvars.iv.i, 1
  %104 = load i32, ptr %91, align 8
  %105 = sext i32 %104 to i64
  %106 = icmp slt i64 %indvars.iv.next.i, %105
  br i1 %106, label %101, label %.preheader.i, !llvm.loop !13

107:                                              ; preds = %107, %.lr.ph12.i
  %indvars.iv14.i = phi i64 [ 0, %.lr.ph12.i ], [ %indvars.iv.next15.i, %107 ]
  %108 = load ptr, ptr %100, align 8
  %109 = getelementptr inbounds nuw i32, ptr %.val61, i64 %indvars.iv14.i
  %110 = load i32, ptr %109, align 4
  %111 = sext i32 %110 to i64
  %112 = getelementptr inbounds i8, ptr %108, i64 %111
  store i8 1, ptr %112, align 1
  %indvars.iv.next15.i = add nuw nsw i64 %indvars.iv14.i, 1
  %exitcond.not.i = icmp eq i64 %indvars.iv.next15.i, %wide.trip.count.i
  br i1 %exitcond.not.i, label %sat_solver_set_polarity.exit, label %107, !llvm.loop !14

sat_solver_set_polarity.exit:                     ; preds = %107, %.preheader.i, %1
  %.047 = phi i32 [ 0, %1 ], [ 1, %.preheader.i ], [ 1, %107 ]
  ret i32 %.047
}